; Function Attrs: nounwind uwtable
define internal { i64, ptr } @f_isinfinite(ptr readnone captures(none) %0, i64 %1, ptr %2) #0 {
  %4 = tail call i32 @jv_get_kind(i64 %1, ptr %2) #14
  %.not = icmp eq i32 %4, 4
  br i1 %.not, label %7, label %5

5:                                                ; preds = %3
  tail call void @jv_free(i64 %1, ptr %2) #14
  %6 = tail call { i64, ptr } @jv_false() #14
  br label %15

7:                                                ; preds = %3
  %8 = tail call double @jv_number_value(i64 %1, ptr %2) #14
  tail call void @jv_free(i64 %1, ptr %2) #14
  %9 = tail call double @llvm.fabs.f64(double %8) #16
  %10 = fcmp oeq double %9, 0x7FF0000000000000
  br i1 %10, label %11, label %13

11:                                               ; preds = %7
  %12 = tail call { i64, ptr } @jv_true() #14
  br label %15

13:                                               ; preds = %7
  %14 = tail call { i64, ptr } @jv_false() #14
  br label %15

15:                                               ; preds = %11, %13, %5
  %.pn9 = phi { i64, ptr } [ %6, %5 ], [ %12, %11 ], [ %14, %13 ]
  ret { i64, ptr } %.pn9
}